target datalayout = "e-m:e-p270:32:32-p271:32:32-p272:64:64-i64:64-i128:128-f80:128-n8:16:32:64-S128"
target triple = "x86_64-pc-linux-gnu"

; Function Attrs: nounwind uwtable
define i32 @hwloc_set_proc_membind(ptr noundef %0, i32 noundef %1, ptr noundef %2, i32 noundef %3, i32 noundef %4) #0 {
  %6 = alloca ptr, align 8
  %7 = alloca i32, align 4
  %8 = alloca ptr, align 8
  %9 = alloca i32, align 4
  %10 = alloca i32, align 4
  %11 = alloca i32, align 4
  %12 = alloca ptr, align 8
  store ptr %0, ptr %6, align 8, !tbaa !3
  store i32 %1, ptr %7, align 4, !tbaa !10
  store ptr %2, ptr %8, align 8, !tbaa !8
  store i32 %3, ptr %9, align 4, !tbaa !10
  store i32 %4, ptr %10, align 4, !tbaa !10
  call void @llvm.lifetime.start.p0(i64 4, ptr %11) #9
  %13 = load i32, ptr %10, align 4, !tbaa !10
  %14 = and i32 %13, 32
  %15 = icmp ne i32 %14, 0
  br i1 %15, label %16, label %23

16:                                               ; preds = %5
  %17 = load ptr, ptr %6, align 8, !tbaa !3
  %18 = load i32, ptr %7, align 4, !tbaa !10
  %19 = load ptr, ptr %8, align 8, !tbaa !8
  %20 = load i32, ptr %9, align 4, !tbaa !10
  %21 = load i32, ptr %10, align 4, !tbaa !10
  %22 = call i32 @hwloc_set_proc_membind_by_nodeset(ptr noundef %17, i32 noundef %18, ptr noundef %19, i32 noundef %20, i32 noundef %21)
  store i32 %22, ptr %11, align 4, !tbaa !10
  br label %40

23:                                               ; preds = %5
  call void @llvm.lifetime.start.p0(i64 8, ptr %12) #9
  %24 = call noalias ptr @hwloc_bitmap_alloc()
  store ptr %24, ptr %12, align 8, !tbaa !8
  %25 = load ptr, ptr %6, align 8, !tbaa !3
  %26 = load ptr, ptr %12, align 8, !tbaa !8
  %27 = load ptr, ptr %8, align 8, !tbaa !8
  %28 = call i32 @hwloc_fix_membind_cpuset(ptr noundef %25, ptr noundef %26, ptr noundef %27)
  %29 = icmp ne i32 %28, 0
  br i1 %29, label %30, label %31

30:                                               ; preds = %23
  store i32 -1, ptr %11, align 4, !tbaa !10
  br label %38

31:                                               ; preds = %23
  %32 = load ptr, ptr %6, align 8, !tbaa !3
  %33 = load i32, ptr %7, align 4, !tbaa !10
  %34 = load ptr, ptr %12, align 8, !tbaa !8
  %35 = load i32, ptr %9, align 4, !tbaa !10
  %36 = load i32, ptr %10, align 4, !tbaa !10
  %37 = call i32 @hwloc_set_proc_membind_by_nodeset(ptr noundef %32, i32 noundef %33, ptr noundef %34, i32 noundef %35, i32 noundef %36)
  store i32 %37, ptr %11, align 4, !tbaa !10
  br label %38

38:                                               ; preds = %31, %30
  %39 = load ptr, ptr %12, align 8, !tbaa !8
  call void @hwloc_bitmap_free(ptr noundef %39)
  call void @llvm.lifetime.end.p0(i64 8, ptr %12) #9
  br label %40

40:                                               ; preds = %38, %16
  %41 = load i32, ptr %11, align 4, !tbaa !10
  call void @llvm.lifetime.end.p0(i64 4, ptr %11) #9
  ret i32 %41
}