; Function Attrs: nounwind uwtable
define i32 @hwloc_set_proc_membind(ptr noundef %0, i32 noundef %1, ptr noundef %2, i32 noundef %3, i32 noundef %4) local_unnamed_addr #0 {
  %6 = and i32 %4, 32
  %.not = icmp eq i32 %6, 0
  br i1 %.not, label %9, label %7

7:                                                ; preds = %5
  %8 = tail call fastcc i32 @hwloc_set_proc_membind_by_nodeset(ptr noundef %0, i32 noundef %1, ptr noundef %2, i32 noundef %3, i32 noundef %4)
  br label %15

9:                                                ; preds = %5
  %10 = tail call noalias ptr @hwloc_bitmap_alloc() #14
  %11 = tail call fastcc i32 @hwloc_fix_membind_cpuset(ptr noundef %0, ptr noundef %10, ptr noundef %2)
  %.not15 = icmp eq i32 %11, 0
  br i1 %.not15, label %12, label %14

12:                                               ; preds = %9
  %13 = tail call fastcc i32 @hwloc_set_proc_membind_by_nodeset(ptr noundef %0, i32 noundef %1, ptr noundef %10, i32 noundef %3, i32 noundef %4)
  br label %14

14:                                               ; preds = %9, %12
  %.1 = phi i32 [ %13, %12 ], [ -1, %9 ]
  tail call void @hwloc_bitmap_free(ptr noundef %10) #14
  br label %15

15:                                               ; preds = %14, %7
  %.0 = phi i32 [ %8, %7 ], [ %.1, %14 ]
  ret i32 %.0
}